(dp0
S'yy'
p1
cnumpy.core.multiarray
scalar
p2
(cnumpy
dtype
p3
(S'f8'
p4
I0
I1
tp5
Rp6
(I3
S'<'
p7
NNNI-1
I-1
I0
tp8
bS'\xa4<^KS\xed\xe1?'
p9
tp10
Rp11
sS'ww'
p12
F0.5397860393580463
sS'xx'
p13
g2
(g6
S'\xba\xd48\xc1\x903\xde?'
p14
tp15
Rp16
sS'zz'
p17
g2
(g6
S'\xea\xd2\xe9\xa7\xd5\x8c\xda?'
p18
tp19
Rp20
sS'y'
p21
g2
(g6
S'\xa0>r\xf2Y\x98\x85\xbf'
p22
tp23
Rp24
sS'x'
p25
g2
(g6
S'\xa8p1sD\xc9\xa5\xbf'
p26
tp27
Rp28
sS'z'
p29
g2
(g6
S'X}(\x9bz\xb1\xb0\xbf'
p30
tp31
Rp32
s.